	.file	"mat_vec.c"
	.text
.Ltext0:
	.file 0 "/home/liu.als/eece5640-hw3/q2" "mat_vec.c"
	.p2align 4
	.globl	CLOCK
	.type	CLOCK, @function
CLOCK:
.LFB5681:
	.file 1 "mat_vec.c"
	.loc 1 8 16 view -0
	.cfi_startproc
	.loc 1 9 5 view .LVU1
	.loc 1 10 5 view .LVU2
	.loc 1 8 16 is_stmt 0 view .LVU3
	subq	$24, %rsp
	.cfi_def_cfa_offset 32
	.loc 1 10 5 view .LVU4
	movl	$1, %edi
	movq	%rsp, %rsi
	call	clock_gettime
.LVL0:
	.loc 1 11 5 is_stmt 1 view .LVU5
	.loc 1 11 22 is_stmt 0 view .LVU6
	imulq	$1000, (%rsp), %rax
	.loc 1 11 40 view .LVU7
	vxorps	%xmm1, %xmm1, %xmm1
	vcvtsi2sdq	8(%rsp), %xmm1, %xmm0
	.loc 1 11 29 view .LVU8
	vcvtsi2sdq	%rax, %xmm1, %xmm1
	vfmadd132sd	.LC0(%rip), %xmm1, %xmm0
	.loc 1 12 1 view .LVU9
	addq	$24, %rsp
	.cfi_def_cfa_offset 8
	ret
	.cfi_endproc
.LFE5681:
	.size	CLOCK, .-CLOCK
	.p2align 4
	.globl	matvec_avx512f
	.type	matvec_avx512f, @function
matvec_avx512f:
.LVL1:
.LFB5682:
	.loc 1 15 87 is_stmt 1 view -0
	.cfi_startproc
	.loc 1 17 5 view .LVU11
	.loc 1 18 5 view .LVU12
.LBB40:
	.loc 1 18 10 view .LVU13
	.loc 1 18 23 view .LVU14
	testl	%ecx, %ecx
	jle	.L12
	leal	-1(%rcx), %eax
	movq	%rdx, %r9
	xorl	%r10d, %r10d
	leaq	4(%rdx,%rax,4), %r11
	leal	-16(%r8), %edx
.LVL2:
	.loc 1 18 23 is_stmt 0 view .LVU15
	shrl	$4, %edx
	addl	$1, %edx
	salq	$6, %rdx
.LVL3:
	.p2align 4,,10
	.p2align 3
.L6:
.LBB41:
	.loc 1 22 32 is_stmt 1 view .LVU16
	vxorpd	%xmm0, %xmm0, %xmm0
	cmpl	$15, %r8d
	jle	.L9
	movslq	%r10d, %rax
.LBE41:
	.loc 1 19 19 is_stmt 0 view .LVU17
	vxorps	%xmm0, %xmm0, %xmm0
	leaq	(%rdi,%rax,4), %rcx
.LBB48:
	.loc 1 24 42 view .LVU18
	xorl	%eax, %eax
.LVL4:
	.p2align 4,,10
	.p2align 3
.L7:
	.loc 1 24 13 is_stmt 1 discriminator 3 view .LVU19
.LBB42:
.LBI42:
	.file 2 "/usr/lib/gcc/x86_64-redhat-linux/11/include/avx512fintrin.h"
	.loc 2 6289 1 discriminator 3 view .LVU20
.LBB43:
	.loc 2 6291 3 discriminator 3 view .LVU21
	.loc 2 6291 3 is_stmt 0 discriminator 3 view .LVU22
.LBE43:
.LBE42:
	.loc 1 25 13 is_stmt 1 discriminator 3 view .LVU23
.LBB44:
.LBI44:
	.loc 2 6289 1 discriminator 3 view .LVU24
.LBB45:
	.loc 2 6291 3 discriminator 3 view .LVU25
	.loc 2 6291 3 is_stmt 0 discriminator 3 view .LVU26
.LBE45:
.LBE44:
	.loc 1 26 13 is_stmt 1 discriminator 3 view .LVU27
.LBB46:
.LBI46:
	.loc 2 13324 1 discriminator 3 view .LVU28
.LBB47:
	.loc 2 13326 3 discriminator 3 view .LVU29
	.loc 2 13326 19 is_stmt 0 discriminator 3 view .LVU30
	vmovups	(%rcx,%rax), %zmm2
	vfmadd231ps	(%rsi,%rax), %zmm2, %zmm0
.LVL5:
	.loc 2 13326 19 discriminator 3 view .LVU31
.LBE47:
.LBE46:
	.loc 1 22 44 is_stmt 1 discriminator 3 view .LVU32
	.loc 1 22 32 discriminator 3 view .LVU33
	addq	$64, %rax
.LVL6:
	.loc 1 22 32 is_stmt 0 discriminator 3 view .LVU34
	cmpq	%rax, %rdx
	jne	.L7
.LVL7:
.L9:
	.loc 1 22 32 discriminator 3 view .LVU35
.LBE48:
	.loc 1 30 9 is_stmt 1 discriminator 2 view .LVU36
.LBB49:
.LBI49:
	.loc 2 16125 1 discriminator 2 view .LVU37
.LBB50:
	.loc 2 16127 3 discriminator 2 view .LVU38
.LBB51:
.LBI51:
	.loc 2 5902 1 discriminator 2 view .LVU39
.LBB52:
	.loc 2 5904 3 discriminator 2 view .LVU40
.LBB53:
.LBI53:
	.file 3 "/usr/lib/gcc/x86_64-redhat-linux/11/include/avxintrin.h"
	.loc 3 1208 1 discriminator 2 view .LVU41
.LBB54:
	.loc 3 1210 3 discriminator 2 view .LVU42
	.loc 3 1211 3 discriminator 2 view .LVU43
.LBE54:
.LBE53:
	.loc 2 5904 20 is_stmt 0 discriminator 2 view .LVU44
	vextractf64x4	$0x1, %zmm0, %ymm1
.LVL8:
	.loc 2 5904 20 discriminator 2 view .LVU45
.LBE52:
.LBE51:
	.loc 2 16127 3 is_stmt 1 discriminator 2 view .LVU46
.LBB55:
.LBI55:
	.loc 2 5902 1 discriminator 2 view .LVU47
.LBB56:
	.loc 2 5904 3 discriminator 2 view .LVU48
.LBB57:
.LBI57:
	.loc 3 1208 1 discriminator 2 view .LVU49
.LBB58:
	.loc 3 1210 3 discriminator 2 view .LVU50
	.loc 3 1211 3 discriminator 2 view .LVU51
	.loc 3 1211 3 is_stmt 0 discriminator 2 view .LVU52
.LBE58:
.LBE57:
.LBE56:
.LBE55:
	.loc 2 16127 3 is_stmt 1 discriminator 2 view .LVU53
.LBE50:
.LBE49:
	.loc 1 18 23 is_stmt 0 discriminator 2 view .LVU54
	addq	$4, %r9
.LVL9:
	.loc 1 18 23 discriminator 2 view .LVU55
	addl	%r8d, %r10d
.LBB64:
.LBB63:
	.loc 2 16127 3 discriminator 2 view .LVU56
	vaddps	%ymm0, %ymm1, %ymm0
.LVL10:
	.loc 2 16127 3 is_stmt 1 discriminator 2 view .LVU57
.LBB59:
.LBI59:
	.loc 3 524 1 discriminator 2 view .LVU58
.LBB60:
	.loc 3 526 3 discriminator 2 view .LVU59
	.loc 3 526 19 is_stmt 0 discriminator 2 view .LVU60
	vextractf128	$0x1, %ymm0, %xmm1
.LVL11:
	.loc 3 526 19 discriminator 2 view .LVU61
.LBE60:
.LBE59:
	.loc 2 16127 3 is_stmt 1 discriminator 2 view .LVU62
.LBB61:
.LBI61:
	.loc 3 524 1 discriminator 2 view .LVU63
.LBB62:
	.loc 3 526 3 discriminator 2 view .LVU64
	.loc 3 526 3 is_stmt 0 discriminator 2 view .LVU65
.LBE62:
.LBE61:
	.loc 2 16127 3 is_stmt 1 discriminator 2 view .LVU66
	vaddps	%xmm0, %xmm1, %xmm1
.LVL12:
	.loc 2 16127 3 discriminator 2 view .LVU67
	.loc 2 16127 3 discriminator 2 view .LVU68
	vpermilps	$78, %xmm1, %xmm0
.LVL13:
	.loc 2 16127 3 is_stmt 0 discriminator 2 view .LVU69
	vaddps	%xmm1, %xmm0, %xmm0
.LVL14:
	.loc 2 16127 3 is_stmt 1 discriminator 2 view .LVU70
	.loc 2 16127 3 is_stmt 0 discriminator 2 view .LVU71
	vmovaps	%xmm0, %xmm1
	vshufps	$85, %xmm0, %xmm0, %xmm0
.LVL15:
	.loc 2 16127 3 discriminator 2 view .LVU72
	vaddss	%xmm0, %xmm1, %xmm1
.LBE63:
.LBE64:
	.loc 1 30 16 discriminator 2 view .LVU73
	vmovss	%xmm1, -4(%r9)
	.loc 1 18 33 is_stmt 1 discriminator 2 view .LVU74
.LVL16:
	.loc 1 18 23 discriminator 2 view .LVU75
	cmpq	%r11, %r9
	jne	.L6
	vzeroupper
.L12:
	.loc 1 18 23 is_stmt 0 discriminator 2 view .LVU76
.LBE40:
	.loc 1 32 1 view .LVU77
	ret
	.cfi_endproc
.LFE5682:
	.size	matvec_avx512f, .-matvec_avx512f
	.p2align 4
	.globl	matvec
	.type	matvec, @function
matvec:
.LVL17:
.LFB5683:
	.loc 1 35 79 is_stmt 1 view -0
	.cfi_startproc
	.loc 1 37 5 view .LVU79
.LBB65:
	.loc 1 37 10 view .LVU80
	.loc 1 37 23 view .LVU81
	testl	%ecx, %ecx
	jle	.L22
	leal	-1(%rcx), %eax
.LBE65:
	.loc 1 35 79 is_stmt 0 view .LVU82
	pushq	%rbx
	.cfi_def_cfa_offset 16
	.cfi_offset 3, -16
.LBB70:
	.loc 1 37 23 view .LVU83
	xorl	%r11d, %r11d
	vxorps	%xmm1, %xmm1, %xmm1
	leaq	4(%rdx,%rax,4), %rbx
	leal	-1(%r8), %r10d
.LVL18:
	.p2align 4,,10
	.p2align 3
.L15:
.LBB66:
.LBB67:
	.loc 1 40 27 is_stmt 1 view .LVU84
.LBE67:
	.loc 1 38 15 is_stmt 0 view .LVU85
	vmovaps	%xmm1, %xmm0
.LBB68:
	.loc 1 40 27 view .LVU86
	testl	%r8d, %r8d
	jle	.L18
	movslq	%r11d, %rax
.LBE68:
	.loc 1 38 15 view .LVU87
	vmovaps	%xmm1, %xmm0
	leaq	(%rdi,%rax,4), %r9
.LBB69:
	.loc 1 41 24 view .LVU88
	xorl	%eax, %eax
.LVL19:
	.p2align 4,,10
	.p2align 3
.L16:
	.loc 1 41 13 is_stmt 1 discriminator 3 view .LVU89
	movq	%rax, %rcx
	.loc 1 41 17 is_stmt 0 discriminator 3 view .LVU90
	vmovss	(%r9,%rax,4), %xmm2
	vfmadd231ss	(%rsi,%rax,4), %xmm2, %xmm0
.LVL20:
	.loc 1 40 36 is_stmt 1 discriminator 3 view .LVU91
	.loc 1 40 27 discriminator 3 view .LVU92
	addq	$1, %rax
.LVL21:
	.loc 1 40 27 is_stmt 0 discriminator 3 view .LVU93
	cmpq	%rcx, %r10
	jne	.L16
.LVL22:
.L18:
	.loc 1 40 27 discriminator 3 view .LVU94
.LBE69:
	.loc 1 43 9 is_stmt 1 discriminator 2 view .LVU95
	.loc 1 43 16 is_stmt 0 discriminator 2 view .LVU96
	vmovss	%xmm0, (%rdx)
.LBE66:
	.loc 1 37 33 is_stmt 1 discriminator 2 view .LVU97
.LVL23:
	.loc 1 37 23 discriminator 2 view .LVU98
	addq	$4, %rdx
.LVL24:
	.loc 1 37 23 is_stmt 0 discriminator 2 view .LVU99
	addl	%r8d, %r11d
	cmpq	%rbx, %rdx
	jne	.L15
.LBE70:
	.loc 1 45 1 view .LVU100
	popq	%rbx
	.cfi_def_cfa_offset 8
	ret
.LVL25:
.L22:
	.cfi_restore 3
	.loc 1 45 1 view .LVU101
	ret
	.cfi_endproc
.LFE5683:
	.size	matvec, .-matvec
	.section	.rodata.str1.1,"aMS",@progbits,1
.LC2:
	.string	"%f "
	.text
	.p2align 4
	.globl	print_vector
	.type	print_vector, @function
print_vector:
.LVL26:
.LFB5684:
	.loc 1 47 44 is_stmt 1 view -0
	.cfi_startproc
	.loc 1 48 5 view .LVU103
.LBB71:
	.loc 1 48 9 view .LVU104
	.loc 1 48 22 view .LVU105
	testl	%esi, %esi
	jle	.L31
.LBE71:
	.loc 1 47 44 is_stmt 0 view .LVU106
	pushq	%r12
	.cfi_def_cfa_offset 16
	.cfi_offset 12, -16
	movq	%rdi, %r12
	pushq	%rbp
	.cfi_def_cfa_offset 24
	.cfi_offset 6, -24
	movslq	%esi, %rbp
	pushq	%rbx
	.cfi_def_cfa_offset 32
	.cfi_offset 3, -32
.LBB72:
	.loc 1 48 22 view .LVU107
	xorl	%ebx, %ebx
	jmp	.L28
.LVL27:
	.p2align 4,,10
	.p2align 3
.L27:
	.loc 1 51 9 is_stmt 1 discriminator 2 view .LVU108
	vxorpd	%xmm1, %xmm1, %xmm1
	movl	$.LC2, %edi
	movl	$1, %eax
	vcvtss2sd	(%r12,%rbx,4), %xmm1, %xmm0
	call	printf
.LVL28:
	.loc 1 48 30 discriminator 2 view .LVU109
	.loc 1 48 22 discriminator 2 view .LVU110
	addq	$1, %rbx
.LVL29:
	.loc 1 48 22 is_stmt 0 discriminator 2 view .LVU111
	cmpq	%rbp, %rbx
	je	.L34
.L28:
.LVL30:
	.loc 1 49 9 is_stmt 1 view .LVU112
	.loc 1 49 12 is_stmt 0 view .LVU113
	testb	$15, %bl
	jne	.L27
	.loc 1 50 13 is_stmt 1 view .LVU114
	movl	$10, %edi
	call	putchar
.LVL31:
	jmp	.L27
.LVL32:
	.p2align 4,,10
	.p2align 3
.L34:
	.loc 1 50 13 is_stmt 0 view .LVU115
.LBE72:
	.loc 1 53 5 is_stmt 1 view .LVU116
	.loc 1 54 1 is_stmt 0 view .LVU117
	popq	%rbx
	.cfi_restore 3
	.cfi_def_cfa_offset 24
	.loc 1 53 5 view .LVU118
	movl	$10, %edi
	.loc 1 54 1 view .LVU119
	popq	%rbp
	.cfi_restore 6
	.cfi_def_cfa_offset 16
.LVL33:
	.loc 1 54 1 view .LVU120
	popq	%r12
	.cfi_restore 12
	.cfi_def_cfa_offset 8
.LVL34:
	.loc 1 53 5 view .LVU121
	jmp	putchar
.LVL35:
	.p2align 4,,10
	.p2align 3
.L31:
	.loc 1 53 5 is_stmt 1 view .LVU122
	movl	$10, %edi
.LVL36:
	.loc 1 53 5 is_stmt 0 view .LVU123
	jmp	putchar
.LVL37:
	.loc 1 53 5 view .LVU124
	.cfi_endproc
.LFE5684:
	.size	print_vector, .-print_vector
	.section	.rodata.str1.1
.LC4:
	.string	"Mat-vec result"
	.section	.rodata.str1.8,"aMS",@progbits,1
	.align 8
.LC5:
	.string	"The total time for matrix multiplication with AVX = %f ms\n"
	.align 8
.LC6:
	.string	"The total time for matrix multiplication without AVX = %f ms\n"
	.section	.text.startup,"ax",@progbits
	.p2align 4
	.globl	main
	.type	main, @function
main:
.LFB5685:
	.loc 1 56 12 is_stmt 1 view -0
	.cfi_startproc
	.loc 1 60 5 view .LVU126
	.loc 1 61 5 view .LVU127
	.loc 1 62 5 view .LVU128
	.loc 1 63 5 view .LVU129
	.loc 1 64 5 view .LVU130
.LVL38:
	.loc 1 65 5 view .LVU131
	.loc 1 68 5 view .LVU132
	.loc 1 68 16 view .LVU133
	.loc 1 56 12 is_stmt 0 view .LVU134
	pushq	%rbp
	.cfi_def_cfa_offset 16
	.cfi_offset 6, -16
	vxorps	%xmm1, %xmm1, %xmm1
	xorl	%eax, %eax
	subq	$2192, %rsp
	.cfi_def_cfa_offset 2208
.LVL39:
	.p2align 4,,10
	.p2align 3
.L36:
	.loc 1 69 9 is_stmt 1 discriminator 3 view .LVU135
	.loc 1 69 16 is_stmt 0 discriminator 3 view .LVU136
	vcvtsi2ssl	%eax, %xmm1, %xmm0
	vmovss	%xmm0, 144(%rsp,%rax,4)
	.loc 1 68 32 is_stmt 1 discriminator 3 view .LVU137
.LVL40:
	.loc 1 68 16 discriminator 3 view .LVU138
	addq	$1, %rax
.LVL41:
	.loc 1 68 16 is_stmt 0 discriminator 3 view .LVU139
	cmpq	$512, %rax
	jne	.L36
	vmovss	.LC3(%rip), %xmm0
	leaq	16(%rsp), %rax
	leaq	80(%rsp), %rbp
	.p2align 4,,10
	.p2align 3
.L37:
.LVL42:
	.loc 1 73 9 is_stmt 1 discriminator 3 view .LVU140
	.loc 1 73 14 is_stmt 0 discriminator 3 view .LVU141
	vmovss	%xmm0, (%rax)
	.loc 1 72 31 is_stmt 1 discriminator 3 view .LVU142
.LVL43:
	.loc 1 72 15 discriminator 3 view .LVU143
	addq	$4, %rax
.LVL44:
	.loc 1 72 15 is_stmt 0 discriminator 3 view .LVU144
	cmpq	%rax, %rbp
	jne	.L37
	.loc 1 81 5 is_stmt 1 view .LVU145
.LBB73:
	.loc 1 78 16 is_stmt 0 view .LVU146
	vpxor	%xmm1, %xmm1, %xmm1
.LBE73:
	.loc 1 81 13 view .LVU147
	xorl	%eax, %eax
.LVL45:
.LBB74:
	.loc 1 78 16 view .LVU148
	vmovdqa	%xmm1, 80(%rsp)
	vmovdqa	%xmm1, 96(%rsp)
	vmovdqa	%xmm1, 112(%rsp)
	vmovdqa	%xmm1, 128(%rsp)
.LBE74:
	.loc 1 81 13 view .LVU149
	call	CLOCK
.LVL46:
	.loc 1 82 5 is_stmt 1 view .LVU150
	movq	%rbp, %rdx
	movl	$16, %r8d
	movl	$32, %ecx
	leaq	16(%rsp), %rsi
	leaq	144(%rsp), %rdi
	.loc 1 81 13 is_stmt 0 view .LVU151
	vmovsd	%xmm0, 8(%rsp)
.LVL47:
	.loc 1 82 5 view .LVU152
	call	matvec_avx512f
.LVL48:
	.loc 1 83 5 is_stmt 1 view .LVU153
	.loc 1 83 14 is_stmt 0 view .LVU154
	xorl	%eax, %eax
	call	CLOCK
.LVL49:
	.loc 1 85 5 is_stmt 1 view .LVU155
	.loc 1 85 11 is_stmt 0 view .LVU156
	vsubsd	8(%rsp), %xmm0, %xmm0
.LVL50:
	.loc 1 86 5 view .LVU157
	movl	$.LC4, %edi
	.loc 1 85 11 view .LVU158
	vmovsd	%xmm0, 8(%rsp)
.LVL51:
	.loc 1 86 5 is_stmt 1 view .LVU159
	call	puts
.LVL52:
	.loc 1 87 5 view .LVU160
	movl	$16, %esi
	movq	%rbp, %rdi
	call	print_vector
.LVL53:
	.loc 1 88 5 view .LVU161
	movl	$.LC5, %edi
	movl	$1, %eax
	vmovsd	8(%rsp), %xmm0
	call	printf
.LVL54:
	.loc 1 91 5 view .LVU162
.LBB75:
	.loc 1 91 9 view .LVU163
	.loc 1 91 22 view .LVU164
	.loc 1 92 16 is_stmt 0 view .LVU165
	vpxor	%xmm1, %xmm1, %xmm1
.LBE75:
	.loc 1 95 13 view .LVU166
	xorl	%eax, %eax
.LBB76:
	.loc 1 92 16 view .LVU167
	vmovdqa	%xmm1, 80(%rsp)
	vmovdqa	%xmm1, 96(%rsp)
	vmovdqa	%xmm1, 112(%rsp)
	vmovdqa	%xmm1, 128(%rsp)
.LVL55:
	.loc 1 92 16 view .LVU168
.LBE76:
	.loc 1 95 5 is_stmt 1 view .LVU169
	.loc 1 95 13 is_stmt 0 view .LVU170
	call	CLOCK
.LVL56:
	.loc 1 96 5 is_stmt 1 view .LVU171
	movq	%rbp, %rdx
	movl	$16, %r8d
	movl	$32, %ecx
	leaq	16(%rsp), %rsi
	leaq	144(%rsp), %rdi
	.loc 1 95 13 is_stmt 0 view .LVU172
	vmovsd	%xmm0, 8(%rsp)
.LVL57:
	.loc 1 96 5 view .LVU173
	call	matvec
.LVL58:
	.loc 1 97 5 is_stmt 1 view .LVU174
	.loc 1 97 14 is_stmt 0 view .LVU175
	xorl	%eax, %eax
	call	CLOCK
.LVL59:
	.loc 1 98 5 is_stmt 1 view .LVU176
	.loc 1 98 11 is_stmt 0 view .LVU177
	vsubsd	8(%rsp), %xmm0, %xmm0
.LVL60:
	.loc 1 100 5 view .LVU178
	movl	$.LC4, %edi
	.loc 1 98 11 view .LVU179
	vmovsd	%xmm0, 8(%rsp)
.LVL61:
	.loc 1 100 5 is_stmt 1 view .LVU180
	call	puts
.LVL62:
	.loc 1 101 5 view .LVU181
	movq	%rbp, %rdi
	movl	$16, %esi
	call	print_vector
.LVL63:
	.loc 1 102 5 view .LVU182
	movl	$.LC6, %edi
	movl	$1, %eax
	vmovsd	8(%rsp), %xmm0
	call	printf
.LVL64:
	.loc 1 103 5 view .LVU183
	.loc 1 104 1 is_stmt 0 view .LVU184
	addq	$2192, %rsp
	.cfi_def_cfa_offset 16
	xorl	%eax, %eax
	popq	%rbp
	.cfi_def_cfa_offset 8
	ret
	.cfi_endproc
.LFE5685:
	.size	main, .-main
	.section	.rodata.cst8,"aM",@progbits,8
	.align 8
.LC0:
	.long	-1598689907
	.long	1051772663
	.section	.rodata.cst4,"aM",@progbits,4
	.align 4
.LC3:
	.long	1065353216
	.text
.Letext0:
	.file 4 "/usr/lib/gcc/x86_64-redhat-linux/11/include/stddef.h"
	.file 5 "/usr/include/bits/types.h"
	.file 6 "/usr/include/bits/types/clockid_t.h"
	.file 7 "/usr/include/bits/types/struct_timespec.h"
	.file 8 "/usr/lib/gcc/x86_64-redhat-linux/11/include/xmmintrin.h"
	.file 9 "/usr/lib/gcc/x86_64-redhat-linux/11/include/emmintrin.h"
	.file 10 "/usr/include/stdio.h"
	.file 11 "/usr/include/time.h"
	.file 12 "<built-in>"
	.section	.note.GNU-stack,"",@progbits
